target datalayout = "e-m:e-p270:32:32-p271:32:32-p272:64:64-i64:64-i128:128-f80:128-n8:16:32:64-S128"
target triple = "x86_64-pc-linux-gnu"

@.str.7 = private unnamed_addr constant [32 x i8] c"%s: pthread_rwlock_wrlock(): %m\00", align 1
@__func__.auth_setuid_lock = private unnamed_addr constant [17 x i8] c"auth_setuid_lock\00", align 1
@externally_locked = internal global i8 0, align 1
@context_lock = internal global { { i32, i32, i32, i32, i32, i32, i32, i32, i8, [7 x i8], i64, i32, [4 x i8] } } zeroinitializer, align 8

; Function Attrs: nounwind uwtable
define dso_local void @auth_setuid_lock() #0 {
  %1 = alloca i32, align 4
  br label %2

2:                                                ; preds = %0
  call void @llvm.lifetime.start.p0(i64 4, ptr %1) #6
  %3 = call i32 @pthread_rwlock_wrlock(ptr noundef @context_lock) #6
  store i32 %3, ptr %1, align 4
  %4 = load i32, ptr %1, align 4
  %5 = icmp ne i32 %4, 0
  br i1 %5, label %6, label %9

6:                                                ; preds = %2
  %7 = load i32, ptr %1, align 4
  %8 = call ptr @__errno_location() #8
  store i32 %7, ptr %8, align 4
  call void (ptr, ...) @fatal_abort(ptr noundef @.str.7, ptr noundef @__func__.auth_setuid_lock) #7
  unreachable

9:                                                ; preds = %2
  call void @llvm.lifetime.end.p0(i64 4, ptr %1) #6
  br label %10

10:                                               ; preds = %9
  store i8 1, ptr @externally_locked, align 1
  ret void
}