; Function Attrs: nounwind uwtable
define dso_local void @auth_setuid_lock() local_unnamed_addr #2 {
  %1 = tail call i32 @pthread_rwlock_wrlock(ptr noundef nonnull @context_lock) #12
  %.not = icmp eq i32 %1, 0
  br i1 %.not, label %4, label %2

2:                                                ; preds = %0
  %3 = tail call ptr @__errno_location() #13
  store i32 %1, ptr %3, align 4
  tail call void (ptr, ...) @fatal_abort(ptr noundef nonnull @.str.7, ptr noundef nonnull @__func__.auth_setuid_lock) #11
  unreachable

4:                                                ; preds = %0
  store i1 true, ptr @externally_locked, align 1
  ret void
}